target datalayout = "e-m:e-p270:32:32-p271:32:32-p272:64:64-i64:64-i128:128-f80:128-n8:16:32:64-S128"
target triple = "x86_64-pc-linux-gnu"

; Function Attrs: mustprogress nounwind uwtable
define hidden noundef i32 @_ZN14CompilerOracle17parse_option_nameEPKc(ptr noundef %0) #1 align 2 {
  %2 = alloca i32, align 4
  %3 = alloca ptr, align 8
  %4 = alloca i32, align 4
  store ptr %0, ptr %3, align 8
  store i32 0, ptr %4, align 4
  br label %5

5:                                                ; preds = %20, %1
  %6 = load i32, ptr %4, align 4
  %7 = zext i32 %6 to i64
  %8 = icmp ult i64 %7, 41
  br i1 %8, label %9, label %23

9:                                                ; preds = %5
  %10 = load ptr, ptr %3, align 8
  %11 = load i32, ptr %4, align 4
  %12 = zext i32 %11 to i64
  %13 = getelementptr inbounds [41 x ptr], ptr @_ZL12option_names, i64 0, i64 %12
  %14 = load ptr, ptr %13, align 8
  %15 = call i32 @strcasecmp(ptr noundef %10, ptr noundef %14) #12
  %16 = icmp eq i32 %15, 0
  br i1 %16, label %17, label %19

17:                                               ; preds = %9
  %18 = load i32, ptr %4, align 4
  store i32 %18, ptr %2, align 4
  br label %24

19:                                               ; preds = %9
  br label %20

20:                                               ; preds = %19
  %21 = load i32, ptr %4, align 4
  %22 = add i32 %21, 1
  store i32 %22, ptr %4, align 4
  br label %5, !llvm.loop !8

23:                                               ; preds = %5
  store i32 40, ptr %2, align 4
  br label %24

24:                                               ; preds = %23, %17
  %25 = load i32, ptr %2, align 4
  ret i32 %25
}